; Function Attrs: mustprogress uwtable
define hidden void @_ZNK19OpenColorIO_v2_4dev11Lut1DOpData7inverseEv(ptr noalias sret(%"class.std::shared_ptr.23") align 8 %agg.result, ptr noundef nonnull align 8 dereferenceable(364) %this) local_unnamed_addr #3 align 2 {
entry:
  %vtable = load ptr, ptr %this, align 8
  %vfn = getelementptr inbounds i8, ptr %vtable, i64 88
  %0 = load ptr, ptr %vfn, align 8
  tail call void %0(ptr sret(%"class.std::shared_ptr.23") align 8 %agg.result, ptr noundef nonnull align 8 dereferenceable(364) %this)
  %m_direction = getelementptr inbounds i8, ptr %this, i64 232
  %1 = load i32, ptr %m_direction, align 8
  %cmp = icmp eq i32 %1, 0
  %cond = zext i1 %cmp to i32
  %2 = load ptr, ptr %agg.result, align 8
  %m_direction2 = getelementptr inbounds i8, ptr %2, i64 232
  store i32 %cond, ptr %m_direction2, align 8
  ret void
}